; Function Attrs: mustprogress uwtable
define noundef i32 @zmq_poller_add_fd(ptr noundef %0, i32 noundef %1, ptr noundef %2, i16 noundef signext %3) local_unnamed_addr #1 {
  %.not.i.i = icmp eq ptr %0, null
  br i1 %.not.i.i, label %_ZL33check_poller_fd_registration_argsPvi.exit.thread, label %5

5:                                                ; preds = %4
  %6 = tail call noundef zeroext i1 @_ZNK3zmq15socket_poller_t9check_tagEv(ptr noundef nonnull align 8 dereferenceable(56) %0)
  br i1 %6, label %_ZL12check_pollerPv.exit.i, label %_ZL33check_poller_fd_registration_argsPvi.exit.thread

_ZL12check_pollerPv.exit.i:                       ; preds = %5
  %7 = icmp eq i32 %1, -1
  br i1 %7, label %_ZL33check_poller_fd_registration_argsPvi.exit.thread, label %_ZL33check_poller_fd_registration_argsPvi.exit

_ZL33check_poller_fd_registration_argsPvi.exit.thread: ; preds = %4, %5, %_ZL12check_pollerPv.exit.i
  %.sink.i = phi i32 [ 14, %4 ], [ 14, %5 ], [ 9, %_ZL12check_pollerPv.exit.i ]
  %8 = tail call ptr @__errno_location() #20
  store i32 %.sink.i, ptr %8, align 4, !tbaa !3
  br label %11

_ZL33check_poller_fd_registration_argsPvi.exit:   ; preds = %_ZL12check_pollerPv.exit.i
  %.not.i = icmp ult i16 %3, 16
  br i1 %.not.i, label %_ZL12check_eventss.exit, label %_ZL12check_eventss.exit.thread

_ZL12check_eventss.exit.thread:                   ; preds = %_ZL33check_poller_fd_registration_argsPvi.exit
  %9 = tail call ptr @__errno_location() #20
  store i32 22, ptr %9, align 4, !tbaa !3
  br label %11

_ZL12check_eventss.exit:                          ; preds = %_ZL33check_poller_fd_registration_argsPvi.exit
  %10 = tail call noundef i32 @_ZN3zmq15socket_poller_t6add_fdEiPvs(ptr noundef nonnull align 8 dereferenceable(56) %0, i32 noundef %1, ptr noundef %2, i16 noundef signext %3)
  br label %11

11:                                               ; preds = %_ZL12check_eventss.exit.thread, %_ZL33check_poller_fd_registration_argsPvi.exit.thread, %_ZL12check_eventss.exit
  %.0 = phi i32 [ %10, %_ZL12check_eventss.exit ], [ -1, %_ZL33check_poller_fd_registration_argsPvi.exit.thread ], [ -1, %_ZL12check_eventss.exit.thread ]
  ret i32 %.0
}